; ModuleID = '5/910.c'
source_filename = "5/910.c"
target datalayout = "e-m:e-p270:32:32-p271:32:32-p272:64:64-i64:64-f80:128-n8:16:32:64-S128"
target triple = "x86_64-pc-linux-gnu"

@.str = private unnamed_addr constant [4 x i8] c"%lf\00", align 1
@.str.1 = private unnamed_addr constant [3 x i8] c"%s\00", align 1
@.str.2 = private unnamed_addr constant [6 x i8] c"error\00", align 1
@.str.3 = private unnamed_addr constant [4 x i8] c"yes\00", align 1
@.str.4 = private unnamed_addr constant [3 x i8] c"no\00", align 1

; Function Attrs: noinline nounwind uwtable
define dso_local i32 @main() #0 {
  %1 = alloca i32, align 4
  %2 = alloca [501 x i8], align 16
  %3 = alloca [501 x i8], align 16
  %4 = alloca double, align 8
  %5 = alloca double, align 8
  %6 = alloca double, align 8
  %7 = alloca double, align 8
  %8 = alloca double, align 8
  %9 = alloca i32, align 4
  %10 = alloca i32, align 4
  store i32 0, i32* %1, align 4
  store double 0.000000e+00, double* %6, align 8
  store i32 0, i32* %10, align 4
  %11 = call i32 (i8*, ...) @__isoc99_scanf(i8* getelementptr inbounds ([4 x i8], [4 x i8]* @.str, i64 0, i64 0), double* %4)
  %12 = getelementptr inbounds [501 x i8], [501 x i8]* %2, i64 0, i64 0
  %13 = call i32 (i8*, ...) @__isoc99_scanf(i8* getelementptr inbounds ([3 x i8], [3 x i8]* @.str.1, i64 0, i64 0), i8* %12)
  %14 = getelementptr inbounds [501 x i8], [501 x i8]* %3, i64 0, i64 0
  %15 = call i32 (i8*, ...) @__isoc99_scanf(i8* getelementptr inbounds ([3 x i8], [3 x i8]* @.str.1, i64 0, i64 0), i8* %14)
  %16 = getelementptr inbounds [501 x i8], [501 x i8]* %2, i64 0, i64 0
  %17 = call i64 @strlen(i8* %16) #3
  %18 = uitofp i64 %17 to double
  store double %18, double* %8, align 8
  %19 = getelementptr inbounds [501 x i8], [501 x i8]* %3, i64 0, i64 0
  %20 = call i64 @strlen(i8* %19) #3
  %21 = uitofp i64 %20 to double
  store double %21, double* %7, align 8
  %22 = load double, double* %8, align 8
  %23 = load double, double* %7, align 8
  %24 = fcmp une double %22, %23
  br i1 %24, label %25, label %28

25:                                               ; preds = %0
  %26 = load i32, i32* %10, align 4
  %27 = add nsw i32 %26, 1
  store i32 %27, i32* %10, align 4
  br label %28

28:                                               ; preds = %25, %0
  store i32 0, i32* %9, align 4
  br label %29

29:                                               ; preds = %66, %28
  %30 = load i32, i32* %9, align 4
  %31 = sitofp i32 %30 to double
  %32 = load double, double* %8, align 8
  %33 = fcmp olt double %31, %32
  br i1 %33, label %34, label %69

34:                                               ; preds = %29
  %35 = load i32, i32* %9, align 4
  %36 = sext i32 %35 to i64
  %37 = getelementptr inbounds [501 x i8], [501 x i8]* %2, i64 0, i64 %36
  %38 = load i8, i8* %37, align 1
  %39 = sext i8 %38 to i32
  %40 = icmp ne i32 %39, 84
  br i1 %40, label %41, label %65

41:                                               ; preds = %34
  %42 = load i32, i32* %9, align 4
  %43 = sext i32 %42 to i64
  %44 = getelementptr inbounds [501 x i8], [501 x i8]* %2, i64 0, i64 %43
  %45 = load i8, i8* %44, align 1
  %46 = sext i8 %45 to i32
  %47 = icmp ne i32 %46, 67
  br i1 %47, label %48, label %65

48:                                               ; preds = %41
  %49 = load i32, i32* %9, align 4
  %50 = sext i32 %49 to i64
  %51 = getelementptr inbounds [501 x i8], [501 x i8]* %2, i64 0, i64 %50
  %52 = load i8, i8* %51, align 1
  %53 = sext i8 %52 to i32
  %54 = icmp ne i32 %53, 71
  br i1 %54, label %55, label %65

55:                                               ; preds = %48
  %56 = load i32, i32* %9, align 4
  %57 = sext i32 %56 to i64
  %58 = getelementptr inbounds [501 x i8], [501 x i8]* %2, i64 0, i64 %57
  %59 = load i8, i8* %58, align 1
  %60 = sext i8 %59 to i32
  %61 = icmp ne i32 %60, 65
  br i1 %61, label %62, label %65

62:                                               ; preds = %55
  %63 = load i32, i32* %10, align 4
  %64 = add nsw i32 %63, 1
  store i32 %64, i32* %10, align 4
  br label %65

65:                                               ; preds = %62, %55, %48, %41, %34
  br label %66

66:                                               ; preds = %65
  %67 = load i32, i32* %9, align 4
  %68 = add nsw i32 %67, 1
  store i32 %68, i32* %9, align 4
  br label %29

69:                                               ; preds = %29
  store i32 0, i32* %9, align 4
  br label %70

70:                                               ; preds = %107, %69
  %71 = load i32, i32* %9, align 4
  %72 = sitofp i32 %71 to double
  %73 = load double, double* %7, align 8
  %74 = fcmp olt double %72, %73
  br i1 %74, label %75, label %110

75:                                               ; preds = %70
  %76 = load i32, i32* %9, align 4
  %77 = sext i32 %76 to i64
  %78 = getelementptr inbounds [501 x i8], [501 x i8]* %3, i64 0, i64 %77
  %79 = load i8, i8* %78, align 1
  %80 = sext i8 %79 to i32
  %81 = icmp ne i32 %80, 84
  br i1 %81, label %82, label %106

82:                                               ; preds = %75
  %83 = load i32, i32* %9, align 4
  %84 = sext i32 %83 to i64
  %85 = getelementptr inbounds [501 x i8], [501 x i8]* %3, i64 0, i64 %84
  %86 = load i8, i8* %85, align 1
  %87 = sext i8 %86 to i32
  %88 = icmp ne i32 %87, 67
  br i1 %88, label %89, label %106

89:                                               ; preds = %82
  %90 = load i32, i32* %9, align 4
  %91 = sext i32 %90 to i64
  %92 = getelementptr inbounds [501 x i8], [501 x i8]* %3, i64 0, i64 %91
  %93 = load i8, i8* %92, align 1
  %94 = sext i8 %93 to i32
  %95 = icmp ne i32 %94, 71
  br i1 %95, label %96, label %106

96:                                               ; preds = %89
  %97 = load i32, i32* %9, align 4
  %98 = sext i32 %97 to i64
  %99 = getelementptr inbounds [501 x i8], [501 x i8]* %3, i64 0, i64 %98
  %100 = load i8, i8* %99, align 1
  %101 = sext i8 %100 to i32
  %102 = icmp ne i32 %101, 65
  br i1 %102, label %103, label %106

103:                                              ; preds = %96
  %104 = load i32, i32* %10, align 4
  %105 = add nsw i32 %104, 1
  store i32 %105, i32* %10, align 4
  br label %106

106:                                              ; preds = %103, %96, %89, %82, %75
  br label %107

107:                                              ; preds = %106
  %108 = load i32, i32* %9, align 4
  %109 = add nsw i32 %108, 1
  store i32 %109, i32* %9, align 4
  br label %70

110:                                              ; preds = %70
  %111 = load i32, i32* %10, align 4
  %112 = icmp ne i32 %111, 0
  br i1 %112, label %113, label %115

113:                                              ; preds = %110
  %114 = call i32 (i8*, ...) @printf(i8* getelementptr inbounds ([6 x i8], [6 x i8]* @.str.2, i64 0, i64 0))
  br label %152

115:                                              ; preds = %110
  store i32 0, i32* %9, align 4
  br label %116

116:                                              ; preds = %137, %115
  %117 = load i32, i32* %9, align 4
  %118 = sitofp i32 %117 to double
  %119 = load double, double* %7, align 8
  %120 = fcmp olt double %118, %119
  br i1 %120, label %121, label %140

121:                                              ; preds = %116
  %122 = load i32, i32* %9, align 4
  %123 = sext i32 %122 to i64
  %124 = getelementptr inbounds [501 x i8], [501 x i8]* %2, i64 0, i64 %123
  %125 = load i8, i8* %124, align 1
  %126 = sext i8 %125 to i32
  %127 = load i32, i32* %9, align 4
  %128 = sext i32 %127 to i64
  %129 = getelementptr inbounds [501 x i8], [501 x i8]* %3, i64 0, i64 %128
  %130 = load i8, i8* %129, align 1
  %131 = sext i8 %130 to i32
  %132 = icmp eq i32 %126, %131
  br i1 %132, label %133, label %136

133:                                              ; preds = %121
  %134 = load double, double* %6, align 8
  %135 = fadd double %134, 1.000000e+00
  store double %135, double* %6, align 8
  br label %136

136:                                              ; preds = %133, %121
  br label %137

137:                                              ; preds = %136
  %138 = load i32, i32* %9, align 4
  %139 = add nsw i32 %138, 1
  store i32 %139, i32* %9, align 4
  br label %116

140:                                              ; preds = %116
  %141 = load double, double* %6, align 8
  %142 = load double, double* %7, align 8
  %143 = fdiv double %141, %142
  store double %143, double* %5, align 8
  %144 = load double, double* %5, align 8
  %145 = load double, double* %4, align 8
  %146 = fcmp ogt double %144, %145
  br i1 %146, label %147, label %149

147:                                              ; preds = %140
  %148 = call i32 (i8*, ...) @printf(i8* getelementptr inbounds ([4 x i8], [4 x i8]* @.str.3, i64 0, i64 0))
  br label %151

149:                                              ; preds = %140
  %150 = call i32 (i8*, ...) @printf(i8* getelementptr inbounds ([3 x i8], [3 x i8]* @.str.4, i64 0, i64 0))
  br label %151

151:                                              ; preds = %149, %147
  br label %152

152:                                              ; preds = %151, %113
  ret i32 0
}

declare dso_local i32 @__isoc99_scanf(i8*, ...) #1

; Function Attrs: nounwind readonly
declare dso_local i64 @strlen(i8*) #2

declare dso_local i32 @printf(i8*, ...) #1


!llvm.module.flags = !{!0}
!llvm.ident = !{!1}

!0 = !{i32 1, !"wchar_size", i32 4}
!1 = !{!"clang version 10.0.0-4ubuntu1 "}
